; ModuleID = '1/379.cpp'
source_filename = "1/379.cpp"
target datalayout = "e-m:e-p270:32:32-p271:32:32-p272:64:64-i64:64-f80:128-n8:16:32:64-S128"
target triple = "x86_64-pc-linux-gnu"

%"class.std::ios_base::Init" = type { i8 }
%"class.std::basic_istream" = type { i32 (...)**, i64, %"class.std::basic_ios" }
%"class.std::basic_ios" = type { %"class.std::ios_base", %"class.std::basic_ostream"*, i8, i8, %"class.std::basic_streambuf"*, %"class.std::ctype"*, %"class.std::num_put"*, %"class.std::num_get"* }
%"class.std::ios_base" = type { i32 (...)**, i64, i64, i32, i32, i32, %"struct.std::ios_base::_Callback_list"*, %"struct.std::ios_base::_Words", [8 x %"struct.std::ios_base::_Words"], i32, %"struct.std::ios_base::_Words"*, %"class.std::locale" }
%"struct.std::ios_base::_Callback_list" = type { %"struct.std::ios_base::_Callback_list"*, void (i32, %"class.std::ios_base"*, i32)*, i32, i32 }
%"struct.std::ios_base::_Words" = type { i8*, i64 }
%"class.std::locale" = type { %"class.std::locale::_Impl"* }
%"class.std::locale::_Impl" = type { i32, %"class.std::locale::facet"**, i64, %"class.std::locale::facet"**, i8** }
%"class.std::locale::facet" = type <{ i32 (...)**, i32, [4 x i8] }>
%"class.std::basic_ostream" = type { i32 (...)**, %"class.std::basic_ios" }
%"class.std::basic_streambuf" = type { i32 (...)**, i8*, i8*, i8*, i8*, i8*, i8*, %"class.std::locale" }
%"class.std::ctype" = type <{ %"class.std::locale::facet.base", [4 x i8], %struct.__locale_struct*, i8, [7 x i8], i32*, i32*, i16*, i8, [256 x i8], [256 x i8], i8, [6 x i8] }>
%"class.std::locale::facet.base" = type <{ i32 (...)**, i32 }>
%struct.__locale_struct = type { [13 x %struct.__locale_data*], i16*, i32*, i32*, [13 x i8*] }
%struct.__locale_data = type opaque
%"class.std::num_put" = type { %"class.std::locale::facet.base", [4 x i8] }
%"class.std::num_get" = type { %"class.std::locale::facet.base", [4 x i8] }

@_ZStL8__ioinit = internal global %"class.std::ios_base::Init" zeroinitializer, align 1
@__dso_handle = external hidden global i8
@_ZSt3cin = external dso_local global %"class.std::basic_istream", align 8
@_ZSt4cout = external dso_local global %"class.std::basic_ostream", align 8
@llvm.global_ctors = appending global [1 x { i32, void ()*, i8* }] [{ i32, void ()*, i8* } { i32 65535, void ()* @_GLOBAL__sub_I_379.cpp, i8* null }]

; Function Attrs: noinline uwtable
define internal void @__cxx_global_var_init() #0 section ".text.startup" {
  call void @_ZNSt8ios_base4InitC1Ev(%"class.std::ios_base::Init"* @_ZStL8__ioinit)
  %1 = call i32 @__cxa_atexit(void (i8*)* bitcast (void (%"class.std::ios_base::Init"*)* @_ZNSt8ios_base4InitD1Ev to void (i8*)*), i8* getelementptr inbounds (%"class.std::ios_base::Init", %"class.std::ios_base::Init"* @_ZStL8__ioinit, i32 0, i32 0), i8* @__dso_handle) #3
  ret void
}

declare dso_local void @_ZNSt8ios_base4InitC1Ev(%"class.std::ios_base::Init"*) unnamed_addr #1

; Function Attrs: nounwind
declare dso_local void @_ZNSt8ios_base4InitD1Ev(%"class.std::ios_base::Init"*) unnamed_addr #2

; Function Attrs: nounwind
declare dso_local i32 @__cxa_atexit(void (i8*)*, i8*, i8*) #3

; Function Attrs: noinline norecurse uwtable
define dso_local i32 @main() #4 {
  %1 = alloca i32, align 4
  %2 = alloca i32, align 4
  %3 = alloca i32, align 4
  %4 = alloca i32, align 4
  %5 = alloca i32, align 4
  %6 = alloca [10000 x i32], align 16
  %7 = alloca i32, align 4
  %8 = alloca i32, align 4
  store i32 0, i32* %1, align 4
  %9 = call dereferenceable(280) %"class.std::basic_istream"* @_ZNSirsERi(%"class.std::basic_istream"* @_ZSt3cin, i32* dereferenceable(4) %3)
  store i32 0, i32* %4, align 4
  br label %10

10:                                               ; preds = %44, %0
  %11 = load i32, i32* %4, align 4
  %12 = load i32, i32* %3, align 4
  %13 = icmp slt i32 %11, %12
  br i1 %13, label %14, label %47

14:                                               ; preds = %10
  %15 = call dereferenceable(280) %"class.std::basic_istream"* @_ZNSirsERi(%"class.std::basic_istream"* @_ZSt3cin, i32* dereferenceable(4) %2)
  store i32 0, i32* %7, align 4
  %16 = load i32, i32* %2, align 4
  store i32 %16, i32* %8, align 4
  store i32 2, i32* %5, align 4
  br label %17

17:                                               ; preds = %34, %14
  %18 = load i32, i32* %5, align 4
  %19 = load i32, i32* %2, align 4
  %20 = icmp sle i32 %18, %19
  br i1 %20, label %21, label %37

21:                                               ; preds = %17
  br label %22

22:                                               ; preds = %27, %21
  %23 = load i32, i32* %8, align 4
  %24 = load i32, i32* %5, align 4
  %25 = srem i32 %23, %24
  %26 = icmp eq i32 %25, 0
  br i1 %26, label %27, label %33

27:                                               ; preds = %22
  %28 = load i32, i32* %5, align 4
  %29 = load i32, i32* %8, align 4
  %30 = sdiv i32 %29, %28
  store i32 %30, i32* %8, align 4
  %31 = load i32, i32* %7, align 4
  %32 = add nsw i32 %31, 1
  store i32 %32, i32* %7, align 4
  br label %22

33:                                               ; preds = %22
  br label %34

34:                                               ; preds = %33
  %35 = load i32, i32* %5, align 4
  %36 = add nsw i32 %35, 1
  store i32 %36, i32* %5, align 4
  br label %17

37:                                               ; preds = %17
  %38 = load i32, i32* %7, align 4
  %39 = load i32, i32* %2, align 4
  %40 = call i32 @_Z7factorsiii(i32 1, i32 %38, i32 %39)
  %41 = load i32, i32* %4, align 4
  %42 = sext i32 %41 to i64
  %43 = getelementptr inbounds [10000 x i32], [10000 x i32]* %6, i64 0, i64 %42
  store i32 %40, i32* %43, align 4
  br label %44

44:                                               ; preds = %37
  %45 = load i32, i32* %4, align 4
  %46 = add nsw i32 %45, 1
  store i32 %46, i32* %4, align 4
  br label %10

47:                                               ; preds = %10
  store i32 0, i32* %4, align 4
  br label %48

48:                                               ; preds = %59, %47
  %49 = load i32, i32* %4, align 4
  %50 = load i32, i32* %3, align 4
  %51 = icmp slt i32 %49, %50
  br i1 %51, label %52, label %62

52:                                               ; preds = %48
  %53 = load i32, i32* %4, align 4
  %54 = sext i32 %53 to i64
  %55 = getelementptr inbounds [10000 x i32], [10000 x i32]* %6, i64 0, i64 %54
  %56 = load i32, i32* %55, align 4
  %57 = call dereferenceable(272) %"class.std::basic_ostream"* @_ZNSolsEi(%"class.std::basic_ostream"* @_ZSt4cout, i32 %56)
  %58 = call dereferenceable(272) %"class.std::basic_ostream"* @_ZNSolsEPFRSoS_E(%"class.std::basic_ostream"* %57, %"class.std::basic_ostream"* (%"class.std::basic_ostream"*)* @_ZSt4endlIcSt11char_traitsIcEERSt13basic_ostreamIT_T0_ES6_)
  br label %59

59:                                               ; preds = %52
  %60 = load i32, i32* %4, align 4
  %61 = add nsw i32 %60, 1
  store i32 %61, i32* %4, align 4
  br label %48

62:                                               ; preds = %48
  ret i32 0
}

declare dso_local dereferenceable(280) %"class.std::basic_istream"* @_ZNSirsERi(%"class.std::basic_istream"*, i32* dereferenceable(4)) #1

; Function Attrs: noinline uwtable
define dso_local i32 @_Z7factorsiii(i32 %0, i32 %1, i32 %2) #0 {
  %4 = alloca i32, align 4
  %5 = alloca i32, align 4
  %6 = alloca i32, align 4
  %7 = alloca i32, align 4
  %8 = alloca i32, align 4
  %9 = alloca i32, align 4
  store i32 %0, i32* %5, align 4
  store i32 %1, i32* %6, align 4
  store i32 %2, i32* %7, align 4
  store i32 0, i32* %8, align 4
  %10 = load i32, i32* %7, align 4
  %11 = load i32, i32* %5, align 4
  %12 = icmp slt i32 %10, %11
  br i1 %12, label %13, label %14

13:                                               ; preds = %3
  store i32 0, i32* %4, align 4
  br label %45

14:                                               ; preds = %3
  %15 = load i32, i32* %6, align 4
  %16 = icmp eq i32 %15, 1
  br i1 %16, label %17, label %18

17:                                               ; preds = %14
  store i32 1, i32* %4, align 4
  br label %45

18:                                               ; preds = %14
  %19 = load i32, i32* %5, align 4
  store i32 %19, i32* %9, align 4
  br label %20

20:                                               ; preds = %40, %18
  %21 = load i32, i32* %9, align 4
  %22 = load i32, i32* %7, align 4
  %23 = icmp sle i32 %21, %22
  br i1 %23, label %24, label %43

24:                                               ; preds = %20
  %25 = load i32, i32* %7, align 4
  %26 = load i32, i32* %9, align 4
  %27 = srem i32 %25, %26
  %28 = icmp eq i32 %27, 0
  br i1 %28, label %29, label %39

29:                                               ; preds = %24
  %30 = load i32, i32* %8, align 4
  %31 = load i32, i32* %9, align 4
  %32 = load i32, i32* %6, align 4
  %33 = sub nsw i32 %32, 1
  %34 = load i32, i32* %7, align 4
  %35 = load i32, i32* %9, align 4
  %36 = sdiv i32 %34, %35
  %37 = call i32 @_Z7factorsiii(i32 %31, i32 %33, i32 %36)
  %38 = add nsw i32 %30, %37
  store i32 %38, i32* %8, align 4
  br label %39

39:                                               ; preds = %29, %24
  br label %40

40:                                               ; preds = %39
  %41 = load i32, i32* %9, align 4
  %42 = add nsw i32 %41, 1
  store i32 %42, i32* %9, align 4
  br label %20

43:                                               ; preds = %20
  %44 = load i32, i32* %8, align 4
  store i32 %44, i32* %4, align 4
  br label %45

45:                                               ; preds = %43, %17, %13
  %46 = load i32, i32* %4, align 4
  ret i32 %46
}

declare dso_local dereferenceable(272) %"class.std::basic_ostream"* @_ZNSolsEi(%"class.std::basic_ostream"*, i32) #1

declare dso_local dereferenceable(272) %"class.std::basic_ostream"* @_ZNSolsEPFRSoS_E(%"class.std::basic_ostream"*, %"class.std::basic_ostream"* (%"class.std::basic_ostream"*)*) #1

declare dso_local dereferenceable(272) %"class.std::basic_ostream"* @_ZSt4endlIcSt11char_traitsIcEERSt13basic_ostreamIT_T0_ES6_(%"class.std::basic_ostream"* dereferenceable(272)) #1

; Function Attrs: noinline uwtable
define internal void @_GLOBAL__sub_I_379.cpp() #0 section ".text.startup" {
  call void @__cxx_global_var_init()
  ret void
}


!llvm.module.flags = !{!0}
!llvm.ident = !{!1}

!0 = !{i32 1, !"wchar_size", i32 4}
!1 = !{!"clang version 10.0.0-4ubuntu1 "}
